(dp1
S'l13nr049.png'
p2
I12
sS'l6nr004.png'
p3
I5
sS'l1nr044.png'
p4
I0
sS'l5nr007.png'
p5
I4
sS'l2nr069.png'
p6
I1
sS'l10nr041.png'
p7
I9
sS'l12nr052.png'
p8
I11
sS'l4nr024.png'
p9
I3
sS'l12nr066.png'
p10
I11
sS'l6nr065.png'
p11
I5
sS'l4nr054.png'
p12
I3
sS'l13nr037.png'
p13
I12
sS'l9nr063.png'
p14
I8
sS'l15nr027.png'
p15
I14
sS'l9nr059.png'
p16
I8
sS'l12nr059.png'
p17
I11
sS'l4nr038.png'
p18
I3
sS'l11nr055.png'
p19
I10
sS'l3nr053.png'
p20
I2
sS'l1nr059.png'
p21
I0
sS'l1nr065.png'
p22
I0
sS'l1nr013.png'
p23
I0
sS'l8nr049.png'
p24
I7
sS'l10nr026.png'
p25
I9
sS'l15nr040.png'
p26
I14
sS'l8nr063.png'
p27
I7
sS'l10nr075.png'
p28
I9
sS'l13nr019.png'
p29
I12
sS'l13nr060.png'
p30
I12
sS'l11nr013.png'
p31
I10
sS'l14nr071.png'
p32
I13
sS'l2nr027.png'
p33
I1
sS'l4nr035.png'
p34
I3
sS'l5nr052.png'
p35
I4
sS'l2nr070.png'
p36
I1
sS'l15nr054.png'
p37
I14
sS'l10nr056.png'
p38
I9
sS'l13nr051.png'
p39
I12
sS'l11nr075.png'
p40
I10
sS'l14nr052.png'
p41
I13
sS'l12nr025.png'
p42
I11
sS'l8nr072.png'
p43
I7
sS'l3nr017.png'
p44
I2
sS'l15nr029.png'
p45
I14
sS'l5nr071.png'
p46
I4
sS'l10nr068.png'
p47
I9
sS'l2nr029.png'
p48
I1
sS'l2nr068.png'
p49
I1
sS'l15nr012.png'
p50
I14
sS'l13nr031.png'
p51
I12
sS'l6nr003.png'
p52
I5
sS'l9nr016.png'
p53
I8
sS'l15nr013.png'
p54
I14
sS'l3nr007.png'
p55
I2
sS'l9nr053.png'
p56
I8
sS'l3nr016.png'
p57
I2
sS'l1nr020.png'
p58
I0
sS'l3nr025.png'
p59
I2
sS'l8nr075.png'
p60
I7
sS'l13nr018.png'
p61
I12
sS'l7nr068.png'
p62
I6
sS'l5nr042.png'
p63
I4
sS'l14nr005.png'
p64
I13
sS'l14nr047.png'
p65
I13
sS'l11nr052.png'
p66
I10
sS'l1nr071.png'
p67
I0
sS'l3nr052.png'
p68
I2
sS'l3nr054.png'
p69
I2
sS'l11nr017.png'
p70
I10
sS'l2nr073.png'
p71
I1
sS'l8nr009.png'
p72
I7
sS'l11nr023.png'
p73
I10
sS'l14nr044.png'
p74
I13
sS'l5nr043.png'
p75
I4
sS'l15nr022.png'
p76
I14
sS'l11nr064.png'
p77
I10
sS'l6nr053.png'
p78
I5
sS'l10nr036.png'
p79
I9
sS'l10nr009.png'
p80
I9
sS'l9nr007.png'
p81
I8
sS'l7nr058.png'
p82
I6
sS'l12nr014.png'
p83
I11
sS'l5nr018.png'
p84
I4
sS'l8nr019.png'
p85
I7
sS'l15nr060.png'
p86
I14
sS'l13nr074.png'
p87
I12
sS'l8nr041.png'
p88
I7
sS'l9nr025.png'
p89
I8
sS'l2nr008.png'
p90
I1
sS'l7nr042.png'
p91
I6
sS'l14nr011.png'
p92
I13
sS'l14nr031.png'
p93
I13
sS'l7nr021.png'
p94
I6
sS'l9nr022.png'
p95
I8
sS'l3nr034.png'
p96
I2
sS'l15nr017.png'
p97
I14
sS'l11nr050.png'
p98
I10
sS'l6nr005.png'
p99
I5
sS'l15nr053.png'
p100
I14
sS'l10nr073.png'
p101
I9
sS'l4nr022.png'
p102
I3
sS'l1nr008.png'
p103
I0
sS'l4nr012.png'
p104
I3
sS'l3nr048.png'
p105
I2
sS'l9nr044.png'
p106
I8
sS'l9nr073.png'
p107
I8
sS'l1nr037.png'
p108
I0
sS'l4nr069.png'
p109
I3
sS'l5nr001.png'
p110
I4
sS'l12nr041.png'
p111
I11
sS'l4nr013.png'
p112
I3
sS'l9nr001.png'
p113
I8
sS'l8nr069.png'
p114
I7
sS'l15nr020.png'
p115
I14
sS'l4nr020.png'
p116
I3
sS'l6nr034.png'
p117
I5
sS'l11nr004.png'
p118
I10
sS'l6nr029.png'
p119
I5
sS'l12nr072.png'
p120
I11
sS'l15nr066.png'
p121
I14
sS'l5nr010.png'
p122
I4
sS'l13nr061.png'
p123
I12
sS'l3nr014.png'
p124
I2
sS'l6nr055.png'
p125
I5
sS'l3nr074.png'
p126
I2
sS'l9nr035.png'
p127
I8
sS'l8nr061.png'
p128
I7
sS'l8nr074.png'
p129
I7
sS'l4nr010.png'
p130
I3
sS'l2nr047.png'
p131
I1
sS'l13nr029.png'
p132
I12
sS'l11nr008.png'
p133
I10
sS'l10nr006.png'
p134
I9
sS'l2nr021.png'
p135
I1
sS'l14nr009.png'
p136
I13
sS'l6nr021.png'
p137
I5
sS'l12nr004.png'
p138
I11
sS'l7nr022.png'
p139
I6
sS'l14nr062.png'
p140
I13
sS'l2nr034.png'
p141
I1
sS'l2nr003.png'
p142
I1
sS'l1nr045.png'
p143
I0
sS'l15nr059.png'
p144
I14
sS'l3nr026.png'
p145
I2
sS'l4nr003.png'
p146
I3
sS'l9nr036.png'
p147
I8
sS'l2nr025.png'
p148
I1
sS'l13nr066.png'
p149
I12
sS'l3nr068.png'
p150
I2
sS'l11nr029.png'
p151
I10
sS'l6nr020.png'
p152
I5
sS'l5nr056.png'
p153
I4
sS'l12nr050.png'
p154
I11
sS'l12nr026.png'
p155
I11
sS'l6nr015.png'
p156
I5
sS'l10nr039.png'
p157
I9
sS'l7nr057.png'
p158
I6
sS'l13nr067.png'
p159
I12
sS'l6nr018.png'
p160
I5
sS'l6nr044.png'
p161
I5
sS'l11nr071.png'
p162
I10
sS'l13nr025.png'
p163
I12
sS'l10nr019.png'
p164
I9
sS'l15nr042.png'
p165
I14
sS'l1nr027.png'
p166
I0
sS'l11nr065.png'
p167
I10
sS'l14nr015.png'
p168
I13
sS'l15nr052.png'
p169
I14
sS'l12nr064.png'
p170
I11
sS'l10nr038.png'
p171
I9
sS'l1nr051.png'
p172
I0
sS'l3nr010.png'
p173
I2
sS'l14nr007.png'
p174
I13
sS'l11nr034.png'
p175
I10
sS'l15nr004.png'
p176
I14
sS'l1nr049.png'
p177
I0
sS'l13nr030.png'
p178
I12
sS'l3nr056.png'
p179
I2
sS'l5nr005.png'
p180
I4
sS'l8nr005.png'
p181
I7
sS'l3nr043.png'
p182
I2
sS'l3nr035.png'
p183
I2
sS'l1nr001.png'
p184
I0
sS'l2nr075.png'
p185
I1
sS'l11nr030.png'
p186
I10
sS'l1nr036.png'
p187
I0
sS'l3nr020.png'
p188
I2
sS'l14nr072.png'
p189
I13
sS'l14nr050.png'
p190
I13
sS'l6nr019.png'
p191
I5
sS'l13nr069.png'
p192
I12
sS'l9nr009.png'
p193
I8
sS'l10nr015.png'
p194
I9
sS'l7nr062.png'
p195
I6
sS'l2nr013.png'
p196
I1
sS'l13nr012.png'
p197
I12
sS'l3nr003.png'
p198
I2
sS'l2nr024.png'
p199
I1
sS'l13nr001.png'
p200
I12
sS'l2nr064.png'
p201
I1
sS'l6nr067.png'
p202
I5
sS'l6nr056.png'
p203
I5
sS'l14nr001.png'
p204
I13
sS'l3nr027.png'
p205
I2
sS'l5nr038.png'
p206
I4
sS'l14nr034.png'
p207
I13
sS'l7nr063.png'
p208
I6
sS'l9nr028.png'
p209
I8
sS'l8nr039.png'
p210
I7
sS'l9nr042.png'
p211
I8
sS'l7nr007.png'
p212
I6
sS'l4nr018.png'
p213
I3
sS'l9nr038.png'
p214
I8
sS'l4nr027.png'
p215
I3
sS'l10nr012.png'
p216
I9
sS'l7nr038.png'
p217
I6
sS'l13nr040.png'
p218
I12
sS'l9nr064.png'
p219
I8
sS'l7nr029.png'
p220
I6
sS'l9nr012.png'
p221
I8
sS'l3nr070.png'
p222
I2
sS'l1nr058.png'
p223
I0
sS'l9nr046.png'
p224
I8
sS'l4nr037.png'
p225
I3
sS'l15nr044.png'
p226
I14
sS'l11nr045.png'
p227
I10
sS'l10nr057.png'
p228
I9
sS'l4nr026.png'
p229
I3
sS'l13nr034.png'
p230
I12
sS'l1nr057.png'
p231
I0
sS'l15nr005.png'
p232
I14
sS'l15nr058.png'
p233
I14
sS'l6nr045.png'
p234
I5
sS'l14nr064.png'
p235
I13
sS'l4nr062.png'
p236
I3
sS'l12nr011.png'
p237
I11
sS'l13nr038.png'
p238
I12
sS'l2nr005.png'
p239
I1
sS'l5nr003.png'
p240
I4
sS'l10nr043.png'
p241
I9
sS'l7nr054.png'
p242
I6
sS'l3nr067.png'
p243
I2
sS'l10nr062.png'
p244
I9
sS'l12nr051.png'
p245
I11
sS'l2nr019.png'
p246
I1
sS'l1nr072.png'
p247
I0
sS'l9nr005.png'
p248
I8
sS'l12nr008.png'
p249
I11
sS'l11nr072.png'
p250
I10
sS'l6nr051.png'
p251
I5
sS'l15nr009.png'
p252
I14
sS'l12nr063.png'
p253
I11
sS'l11nr018.png'
p254
I10
sS'l5nr029.png'
p255
I4
sS'l13nr055.png'
p256
I12
sS'l12nr035.png'
p257
I11
sS'l2nr071.png'
p258
I1
sS'l11nr001.png'
p259
I10
sS'l13nr048.png'
p260
I12
sS'l3nr005.png'
p261
I2
sS'l4nr031.png'
p262
I3
sS'l9nr030.png'
p263
I8
sS'l3nr055.png'
p264
I2
sS'l9nr070.png'
p265
I8
sS'l15nr002.png'
p266
I14
sS'l5nr045.png'
p267
I4
sS'l15nr031.png'
p268
I14
sS'l2nr026.png'
p269
I1
sS'l6nr068.png'
p270
I5
sS'l13nr057.png'
p271
I12
sS'l9nr047.png'
p272
I8
sS'l1nr023.png'
p273
I0
sS'l3nr019.png'
p274
I2
sS'l4nr053.png'
p275
I3
sS'l7nr061.png'
p276
I6
sS'l7nr019.png'
p277
I6
sS'l7nr041.png'
p278
I6
sS'l13nr063.png'
p279
I12
sS'l8nr008.png'
p280
I7
sS'l8nr038.png'
p281
I7
sS'l12nr061.png'
p282
I11
sS'l9nr015.png'
p283
I8
sS'l10nr013.png'
p284
I9
sS'l3nr060.png'
p285
I2
sS'l9nr003.png'
p286
I8
sS'l5nr058.png'
p287
I4
sS'l4nr028.png'
p288
I3
sS'l12nr048.png'
p289
I11
sS'l4nr030.png'
p290
I3
sS'l10nr031.png'
p291
I9
sS'l8nr016.png'
p292
I7
sS'l10nr040.png'
p293
I9
sS'l10nr022.png'
p294
I9
sS'l7nr075.png'
p295
I6
sS'l11nr051.png'
p296
I10
sS'l11nr009.png'
p297
I10
sS'l12nr045.png'
p298
I11
sS'l2nr040.png'
p299
I1
sS'l5nr054.png'
p300
I4
sS'l3nr015.png'
p301
I2
sS'l13nr056.png'
p302
I12
sS'l14nr061.png'
p303
I13
sS'l1nr005.png'
p304
I0
sS'l5nr013.png'
p305
I4
sS'l3nr057.png'
p306
I2
sS'l1nr070.png'
p307
I0
sS'l3nr038.png'
p308
I2
sS'l6nr058.png'
p309
I5
sS'l2nr020.png'
p310
I1
sS'l9nr027.png'
p311
I8
sS'l7nr043.png'
p312
I6
sS'l3nr046.png'
p313
I2
sS'l2nr037.png'
p314
I1
sS'l14nr010.png'
p315
I13
sS'l5nr023.png'
p316
I4
sS'l9nr062.png'
p317
I8
sS'l6nr060.png'
p318
I5
sS'l14nr025.png'
p319
I13
sS'l6nr017.png'
p320
I5
sS'l5nr032.png'
p321
I4
sS'l10nr074.png'
p322
I9
sS'l11nr070.png'
p323
I10
sS'l5nr060.png'
p324
I4
sS'l7nr065.png'
p325
I6
sS'l1nr007.png'
p326
I0
sS'l13nr041.png'
p327
I12
sS'l6nr028.png'
p328
I5
sS'l10nr058.png'
p329
I9
sS'l3nr024.png'
p330
I2
sS'l4nr068.png'
p331
I3
sS'l11nr011.png'
p332
I10
sS'l5nr033.png'
p333
I4
sS'l7nr014.png'
p334
I6
sS'l2nr018.png'
p335
I1
sS'l11nr073.png'
p336
I10
sS'l2nr046.png'
p337
I1
sS'l4nr063.png'
p338
I3
sS'l2nr039.png'
p339
I1
sS'l1nr033.png'
p340
I0
sS'l1nr014.png'
p341
I0
sS'l13nr064.png'
p342
I12
sS'l7nr069.png'
p343
I6
sS'l7nr073.png'
p344
I6
sS'l14nr042.png'
p345
I13
sS'l6nr026.png'
p346
I5
sS'l11nr067.png'
p347
I10
sS'l10nr025.png'
p348
I9
sS'l9nr045.png'
p349
I8
sS'l14nr063.png'
p350
I13
sS'l2nr002.png'
p351
I1
sS'l12nr033.png'
p352
I11
sS'l4nr066.png'
p353
I3
sS'l8nr054.png'
p354
I7
sS'l4nr050.png'
p355
I3
sS'l1nr056.png'
p356
I0
sS'l5nr034.png'
p357
I4
sS'l9nr075.png'
p358
I8
sS'l2nr028.png'
p359
I1
sS'l6nr063.png'
p360
I5
sS'l12nr009.png'
p361
I11
sS'l12nr042.png'
p362
I11
sS'l7nr074.png'
p363
I6
sS'l10nr018.png'
p364
I9
sS'l11nr025.png'
p365
I10
sS'l8nr047.png'
p366
I7
sS'l6nr011.png'
p367
I5
sS'l8nr033.png'
p368
I7
sS'l14nr045.png'
p369
I13
sS'l11nr007.png'
p370
I10
sS'l3nr037.png'
p371
I2
sS'l14nr073.png'
p372
I13
sS'l11nr016.png'
p373
I10
sS'l7nr045.png'
p374
I6
sS'l11nr003.png'
p375
I10
sS'l12nr065.png'
p376
I11
sS'l14nr016.png'
p377
I13
sS'l9nr067.png'
p378
I8
sS'l1nr017.png'
p379
I0
sS'l11nr068.png'
p380
I10
sS'l2nr067.png'
p381
I1
sS'l2nr035.png'
p382
I1
sS'l5nr028.png'
p383
I4
sS'l9nr043.png'
p384
I8
sS'l5nr002.png'
p385
I4
sS'l11nr059.png'
p386
I10
sS'l2nr057.png'
p387
I1
sS'l7nr059.png'
p388
I6
sS'l9nr032.png'
p389
I8
sS'l5nr055.png'
p390
I4
sS'l9nr010.png'
p391
I8
sS'l13nr013.png'
p392
I12
sS'l7nr034.png'
p393
I6
sS'l1nr055.png'
p394
I0
sS'l8nr026.png'
p395
I7
sS'l1nr009.png'
p396
I0
sS'l9nr024.png'
p397
I8
sS'l12nr044.png'
p398
I11
sS'l14nr075.png'
p399
I13
sS'l7nr020.png'
p400
I6
sS'l12nr049.png'
p401
I11
sS'l6nr069.png'
p402
I5
sS'l11nr047.png'
p403
I10
sS'l9nr002.png'
p404
I8
sS'l8nr046.png'
p405
I7
sS'l14nr018.png'
p406
I13
sS'l3nr049.png'
p407
I2
sS'l11nr057.png'
p408
I10
sS'l14nr069.png'
p409
I13
sS'l12nr018.png'
p410
I11
sS'l9nr029.png'
p411
I8
sS'l2nr036.png'
p412
I1
sS'l7nr028.png'
p413
I6
sS'l6nr002.png'
p414
I5
sS'l15nr043.png'
p415
I14
sS'l11nr046.png'
p416
I10
sS'l1nr030.png'
p417
I0
sS'l14nr054.png'
p418
I13
sS'l12nr053.png'
p419
I11
sS'l3nr040.png'
p420
I2
sS'l11nr062.png'
p421
I10
sS'l9nr065.png'
p422
I8
sS'l12nr006.png'
p423
I11
sS'l2nr033.png'
p424
I1
sS'l11nr033.png'
p425
I10
sS'l12nr028.png'
p426
I11
sS'l11nr002.png'
p427
I10
sS'l2nr048.png'
p428
I1
sS'l8nr003.png'
p429
I7
sS'l4nr061.png'
p430
I3
sS'l10nr003.png'
p431
I9
sS'l5nr008.png'
p432
I4
sS'l14nr002.png'
p433
I13
sS'l1nr048.png'
p434
I0
sS'l8nr044.png'
p435
I7
sS'l6nr013.png'
p436
I5
sS'l15nr025.png'
p437
I14
sS'l7nr033.png'
p438
I6
sS'l15nr070.png'
p439
I14
sS'l12nr020.png'
p440
I11
sS'l1nr031.png'
p441
I0
sS'l13nr032.png'
p442
I12
sS'l4nr033.png'
p443
I3
sS'l8nr023.png'
p444
I7
sS'l8nr030.png'
p445
I7
sS'l5nr041.png'
p446
I4
sS'l4nr017.png'
p447
I3
sS'l8nr015.png'
p448
I7
sS'l7nr060.png'
p449
I6
sS'l14nr037.png'
p450
I13
sS'l10nr032.png'
p451
I9
sS'l1nr040.png'
p452
I0
sS'l4nr048.png'
p453
I3
sS'l6nr040.png'
p454
I5
sS'l14nr056.png'
p455
I13
sS'l2nr015.png'
p456
I1
sS'l4nr007.png'
p457
I3
sS'l4nr044.png'
p458
I3
sS'l7nr011.png'
p459
I6
sS'l6nr057.png'
p460
I5
sS'l9nr052.png'
p461
I8
sS'l13nr008.png'
p462
I12
sS'l15nr062.png'
p463
I14
sS'l3nr072.png'
p464
I2
sS'l4nr058.png'
p465
I3
sS'l10nr007.png'
p466
I9
sS'l4nr045.png'
p467
I3
sS'l6nr010.png'
p468
I5
sS'l14nr046.png'
p469
I13
sS'l4nr067.png'
p470
I3
sS'l5nr048.png'
p471
I4
sS'l14nr038.png'
p472
I13
sS'l9nr021.png'
p473
I8
sS'l15nr032.png'
p474
I14
sS'l5nr031.png'
p475
I4
sS'l3nr009.png'
p476
I2
sS'l11nr053.png'
p477
I10
sS'l10nr049.png'
p478
I9
sS'l1nr043.png'
p479
I0
sS'l11nr058.png'
p480
I10
sS'l5nr062.png'
p481
I4
sS'l6nr062.png'
p482
I5
sS'l11nr044.png'
p483
I10
sS'l14nr003.png'
p484
I13
sS'l10nr064.png'
p485
I9
sS'l8nr048.png'
p486
I7
sS'l8nr036.png'
p487
I7
sS'l3nr066.png'
p488
I2
sS'l2nr074.png'
p489
I1
sS'l10nr069.png'
p490
I9
sS'l10nr030.png'
p491
I9
sS'l8nr017.png'
p492
I7
sS'l1nr024.png'
p493
I0
sS'l7nr018.png'
p494
I6
sS'l1nr063.png'
p495
I0
sS'l14nr036.png'
p496
I13
sS'l5nr046.png'
p497
I4
sS'l9nr011.png'
p498
I8
sS'l14nr029.png'
p499
I13
sS'l8nr031.png'
p500
I7
sS'l13nr009.png'
p501
I12
sS'l12nr001.png'
p502
I11
sS'l14nr032.png'
p503
I13
sS'l11nr005.png'
p504
I10
sS'l14nr059.png'
p505
I13
sS'l6nr073.png'
p506
I5
sS'l15nr068.png'
p507
I14
sS'l3nr071.png'
p508
I2
sS'l2nr044.png'
p509
I1
sS'l7nr009.png'
p510
I6
sS'l11nr022.png'
p511
I10
sS'l6nr022.png'
p512
I5
sS'l4nr032.png'
p513
I3
sS'l5nr061.png'
p514
I4
sS'l8nr011.png'
p515
I7
sS'l8nr027.png'
p516
I7
sS'l12nr038.png'
p517
I11
sS'l13nr014.png'
p518
I12
sS'l7nr002.png'
p519
I6
sS'l2nr016.png'
p520
I1
sS'l14nr055.png'
p521
I13
sS'l3nr022.png'
p522
I2
sS'l6nr001.png'
p523
I5
sS'l9nr033.png'
p524
I8
sS'l11nr015.png'
p525
I10
sS'l8nr060.png'
p526
I7
sS'l11nr006.png'
p527
I10
sS'l13nr010.png'
p528
I12
sS'l4nr016.png'
p529
I3
sS'l10nr052.png'
p530
I9
sS'l15nr056.png'
p531
I14
sS'l2nr023.png'
p532
I1
sS'l10nr042.png'
p533
I9
sS'l8nr001.png'
p534
I7
sS'l5nr040.png'
p535
I4
sS'l3nr023.png'
p536
I2
sS'l2nr058.png'
p537
I1
sS'l14nr039.png'
p538
I13
sS'l10nr063.png'
p539
I9
sS'l4nr039.png'
p540
I3
sS'l2nr032.png'
p541
I1
sS'l13nr006.png'
p542
I12
sS'l12nr031.png'
p543
I11
sS'l13nr052.png'
p544
I12
sS'l13nr007.png'
p545
I12
sS'l10nr008.png'
p546
I9
sS'l3nr039.png'
p547
I2
sS'l15nr047.png'
p548
I14
sS'l11nr024.png'
p549
I10
sS'l1nr038.png'
p550
I0
sS'l6nr043.png'
p551
I5
sS'l9nr031.png'
p552
I8
sS'l7nr017.png'
p553
I6
sS'l2nr001.png'
p554
I1
sS'l14nr060.png'
p555
I13
sS'l3nr031.png'
p556
I2
sS'l5nr057.png'
p557
I4
sS'l2nr043.png'
p558
I1
sS'l1nr053.png'
p559
I0
sS'l14nr019.png'
p560
I13
sS'l8nr055.png'
p561
I7
sS'l12nr069.png'
p562
I11
sS'l6nr025.png'
p563
I5
sS'l15nr014.png'
p564
I14
sS'l3nr008.png'
p565
I2
sS'l1nr075.png'
p566
I0
sS'l10nr055.png'
p567
I9
sS'l13nr039.png'
p568
I12
sS'l3nr030.png'
p569
I2
sS'l5nr015.png'
p570
I4
sS'l15nr069.png'
p571
I14
sS'l2nr006.png'
p572
I1
sS'l5nr037.png'
p573
I4
sS'l3nr050.png'
p574
I2
sS'l14nr067.png'
p575
I13
sS'l5nr020.png'
p576
I4
sS'l15nr007.png'
p577
I14
sS'l5nr026.png'
p578
I4
sS'l4nr029.png'
p579
I3
sS'l1nr034.png'
p580
I0
sS'l2nr045.png'
p581
I1
sS'l9nr020.png'
p582
I8
sS'l1nr028.png'
p583
I0
sS'l11nr040.png'
p584
I10
sS'l10nr002.png'
p585
I9
sS'l7nr026.png'
p586
I6
sS'l9nr048.png'
p587
I8
sS'l10nr024.png'
p588
I9
sS'l10nr023.png'
p589
I9
sS'l9nr026.png'
p590
I8
sS'l10nr048.png'
p591
I9
sS'l4nr034.png'
p592
I3
sS'l11nr039.png'
p593
I10
sS'l5nr069.png'
p594
I4
sS'l14nr014.png'
p595
I13
sS'l3nr021.png'
p596
I2
sS'l3nr059.png'
p597
I2
sS'l4nr051.png'
p598
I3
sS'l7nr047.png'
p599
I6
sS'l9nr040.png'
p600
I8
sS'l6nr023.png'
p601
I5
sS'l12nr034.png'
p602
I11
sS'l6nr027.png'
p603
I5
sS'l12nr029.png'
p604
I11
sS'l4nr073.png'
p605
I3
sS'l8nr032.png'
p606
I7
sS'l11nr049.png'
p607
I10
sS'l3nr062.png'
p608
I2
sS'l1nr066.png'
p609
I0
sS'l3nr045.png'
p610
I2
sS'l11nr048.png'
p611
I10
sS'l1nr002.png'
p612
I0
sS'l11nr014.png'
p613
I10
sS'l4nr047.png'
p614
I3
sS'l5nr067.png'
p615
I4
sS'l10nr014.png'
p616
I9
sS'l12nr027.png'
p617
I11
sS'l14nr004.png'
p618
I13
sS'l7nr035.png'
p619
I6
sS'l2nr038.png'
p620
I1
sS'l9nr066.png'
p621
I8
sS'l13nr011.png'
p622
I12
sS'l4nr015.png'
p623
I3
sS'l12nr007.png'
p624
I11
sS'l1nr068.png'
p625
I0
sS'l1nr029.png'
p626
I0
sS'l14nr057.png'
p627
I13
sS'l13nr004.png'
p628
I12
sS'l6nr066.png'
p629
I5
sS'l15nr051.png'
p630
I14
sS'l4nr023.png'
p631
I3
sS'l3nr032.png'
p632
I2
sS'l3nr064.png'
p633
I2
sS'l15nr026.png'
p634
I14
sS'l2nr030.png'
p635
I1
sS'l12nr021.png'
p636
I11
sS'l2nr007.png'
p637
I1
sS'l5nr075.png'
p638
I4
sS'l2nr061.png'
p639
I1
sS'l14nr066.png'
p640
I13
sS'l9nr061.png'
p641
I8
sS'l12nr036.png'
p642
I11
sS'l8nr025.png'
p643
I7
sS'l7nr044.png'
p644
I6
sS'l8nr059.png'
p645
I7
sS'l2nr052.png'
p646
I1
sS'l5nr039.png'
p647
I4
sS'l14nr017.png'
p648
I13
sS'l15nr045.png'
p649
I14
sS'l1nr054.png'
p650
I0
sS'l12nr075.png'
p651
I11
sS'l6nr071.png'
p652
I5
sS'l13nr044.png'
p653
I12
sS'l4nr071.png'
p654
I3
sS'l14nr040.png'
p655
I13
sS'l8nr029.png'
p656
I7
sS'l10nr020.png'
p657
I9
sS'l7nr071.png'
p658
I6
sS'l15nr001.png'
p659
I14
sS'l13nr033.png'
p660
I12
sS'l12nr037.png'
p661
I11
sS'l11nr054.png'
p662
I10
sS'l12nr071.png'
p663
I11
sS'l6nr012.png'
p664
I5
sS'l7nr048.png'
p665
I6
sS'l9nr023.png'
p666
I8
sS'l11nr019.png'
p667
I10
sS'l8nr040.png'
p668
I7
sS'l13nr070.png'
p669
I12
sS'l1nr035.png'
p670
I0
sS'l7nr070.png'
p671
I6
sS'l3nr036.png'
p672
I2
sS'l15nr015.png'
p673
I14
sS'l3nr047.png'
p674
I2
sS'l4nr025.png'
p675
I3
sS'l12nr068.png'
p676
I11
sS'l5nr063.png'
p677
I4
sS'l8nr050.png'
p678
I7
sS'l2nr014.png'
p679
I1
sS'l3nr069.png'
p680
I2
sS'l4nr040.png'
p681
I3
sS'l5nr074.png'
p682
I4
sS'l6nr049.png'
p683
I5
sS'l5nr068.png'
p684
I4
sS'l11nr056.png'
p685
I10
sS'l1nr003.png'
p686
I0
sS'l6nr033.png'
p687
I5
sS'l12nr043.png'
p688
I11
sS'l5nr030.png'
p689
I4
sS'l8nr014.png'
p690
I7
sS'l10nr033.png'
p691
I9
sS'l3nr018.png'
p692
I2
sS'l1nr004.png'
p693
I0
sS'l15nr034.png'
p694
I14
sS'l13nr024.png'
p695
I12
sS'l7nr006.png'
p696
I6
sS'l1nr019.png'
p697
I0
sS'l9nr004.png'
p698
I8
sS'l15nr055.png'
p699
I14
sS'l3nr044.png'
p700
I2
sS'l3nr061.png'
p701
I2
sS'l9nr060.png'
p702
I8
sS'l6nr030.png'
p703
I5
sS'l1nr046.png'
p704
I0
sS'l8nr013.png'
p705
I7
sS'l1nr060.png'
p706
I0
sS'l1nr011.png'
p707
I0
sS'l10nr034.png'
p708
I9
sS'l3nr041.png'
p709
I2
sS'l6nr042.png'
p710
I5
sS'l6nr061.png'
p711
I5
sS'l7nr049.png'
p712
I6
sS'l11nr026.png'
p713
I10
sS'l6nr050.png'
p714
I5
sS'l8nr058.png'
p715
I7
sS'l2nr059.png'
p716
I1
sS'l1nr064.png'
p717
I0
sS'l5nr012.png'
p718
I4
sS'l13nr002.png'
p719
I12
sS'l13nr050.png'
p720
I12
sS'l10nr044.png'
p721
I9
sS'l4nr014.png'
p722
I3
sS'l1nr010.png'
p723
I0
sS'l1nr012.png'
p724
I0
sS'l11nr042.png'
p725
I10
sS'l11nr074.png'
p726
I10
sS'l10nr010.png'
p727
I9
sS'l13nr072.png'
p728
I12
sS'l1nr022.png'
p729
I0
sS'l12nr032.png'
p730
I11
sS'l5nr036.png'
p731
I4
sS'l14nr027.png'
p732
I13
sS'l14nr030.png'
p733
I13
sS'l5nr025.png'
p734
I4
sS'l15nr057.png'
p735
I14
sS'l12nr060.png'
p736
I11
sS'l5nr065.png'
p737
I4
sS'l7nr072.png'
p738
I6
sS'l7nr024.png'
p739
I6
sS'l3nr001.png'
p740
I2
sS'l14nr043.png'
p741
I13
sS'l13nr045.png'
p742
I12
sS'l12nr016.png'
p743
I11
sS'l3nr012.png'
p744
I2
sS'l15nr071.png'
p745
I14
sS'l11nr036.png'
p746
I10
sS'l3nr073.png'
p747
I2
sS'l13nr042.png'
p748
I12
sS'l11nr010.png'
p749
I10
sS'l13nr046.png'
p750
I12
sS'l4nr008.png'
p751
I3
sS'l7nr012.png'
p752
I6
sS'l6nr031.png'
p753
I5
sS'l12nr047.png'
p754
I11
sS'l5nr014.png'
p755
I4
sS'l4nr042.png'
p756
I3
sS'l12nr062.png'
p757
I11
sS'l10nr053.png'
p758
I9
sS'l14nr074.png'
p759
I13
sS'l15nr067.png'
p760
I14
sS'l7nr040.png'
p761
I6
sS'l14nr035.png'
p762
I13
sS'l15nr041.png'
p763
I14
sS'l15nr006.png'
p764
I14
sS'l9nr074.png'
p765
I8
sS'l4nr075.png'
p766
I3
sS'l9nr034.png'
p767
I8
sS'l11nr021.png'
p768
I10
sS'l15nr075.png'
p769
I14
sS'l1nr025.png'
p770
I0
sS'l7nr037.png'
p771
I6
sS'l14nr006.png'
p772
I13
sS'l14nr065.png'
p773
I13
sS'l8nr012.png'
p774
I7
sS'l5nr049.png'
p775
I4
sS'l9nr017.png'
p776
I8
sS'l15nr065.png'
p777
I14
sS'l10nr035.png'
p778
I9
sS'l3nr006.png'
p779
I2
sS'l10nr060.png'
p780
I9
sS'l8nr056.png'
p781
I7
sS'l4nr060.png'
p782
I3
sS'l6nr038.png'
p783
I5
sS'l6nr007.png'
p784
I5
sS'l13nr003.png'
p785
I12
sS'l7nr008.png'
p786
I6
sS'l14nr048.png'
p787
I13
sS'l8nr065.png'
p788
I7
sS'l8nr070.png'
p789
I7
sS'l6nr064.png'
p790
I5
sS'l11nr027.png'
p791
I10
sS'l8nr052.png'
p792
I7
sS'l2nr066.png'
p793
I1
sS'l3nr042.png'
p794
I2
sS'l3nr029.png'
p795
I2
sS'l3nr033.png'
p796
I2
sS'l6nr006.png'
p797
I5
sS'l5nr070.png'
p798
I4
sS'l4nr056.png'
p799
I3
sS'l12nr040.png'
p800
I11
sS'l5nr027.png'
p801
I4
sS'l8nr034.png'
p802
I7
sS'l6nr016.png'
p803
I5
sS'l4nr057.png'
p804
I3
sS'l3nr058.png'
p805
I2
sS'l2nr051.png'
p806
I1
sS'l5nr009.png'
p807
I4
sS'l1nr073.png'
p808
I0
sS'l7nr004.png'
p809
I6
sS'l11nr043.png'
p810
I10
sS'l4nr070.png'
p811
I3
sS'l14nr058.png'
p812
I13
sS'l14nr028.png'
p813
I13
sS'l8nr035.png'
p814
I7
sS'l15nr036.png'
p815
I14
sS'l10nr047.png'
p816
I9
sS'l4nr004.png'
p817
I3
sS'l7nr010.png'
p818
I6
sS'l12nr030.png'
p819
I11
sS'l13nr058.png'
p820
I12
sS'l4nr046.png'
p821
I3
sS'l13nr021.png'
p822
I12
sS'l8nr006.png'
p823
I7
sS'l4nr001.png'
p824
I3
sS'l3nr013.png'
p825
I2
sS'l11nr060.png'
p826
I10
sS'l2nr060.png'
p827
I1
sS'l5nr024.png'
p828
I4
sS'l1nr006.png'
p829
I0
sS'l5nr047.png'
p830
I4
sS'l2nr017.png'
p831
I1
sS'l2nr009.png'
p832
I1
sS'l14nr068.png'
p833
I13
sS'l6nr072.png'
p834
I5
sS'l15nr011.png'
p835
I14
sS'l15nr046.png'
p836
I14
sS'l1nr067.png'
p837
I0
sS'l4nr006.png'
p838
I3
sS'l8nr002.png'
p839
I7
sS'l5nr021.png'
p840
I4
sS'l3nr065.png'
p841
I2
sS'l8nr053.png'
p842
I7
sS'l2nr042.png'
p843
I1
sS'l13nr047.png'
p844
I12
sS'l8nr043.png'
p845
I7
sS'l7nr013.png'
p846
I6
sS'l7nr032.png'
p847
I6
sS'l14nr021.png'
p848
I13
sS'l1nr062.png'
p849
I0
sS'l8nr022.png'
p850
I7
sS'l7nr050.png'
p851
I6
sS'l12nr070.png'
p852
I11
sS'l6nr008.png'
p853
I5
sS'l7nr016.png'
p854
I6
sS'l15nr023.png'
p855
I14
sS'l11nr020.png'
p856
I10
sS'l7nr005.png'
p857
I6
sS'l7nr003.png'
p858
I6
sS'l9nr068.png'
p859
I8
sS'l13nr071.png'
p860
I12
sS'l12nr058.png'
p861
I11
sS'l1nr041.png'
p862
I0
sS'l15nr074.png'
p863
I14
sS'l6nr035.png'
p864
I5
sS'l12nr012.png'
p865
I11
sS'l6nr046.png'
p866
I5
sS'l2nr053.png'
p867
I1
sS'l15nr019.png'
p868
I14
sS'l9nr057.png'
p869
I8
sS'l1nr061.png'
p870
I0
sS'l5nr064.png'
p871
I4
sS'l11nr069.png'
p872
I10
sS'l9nr054.png'
p873
I8
sS'l4nr074.png'
p874
I3
sS'l1nr050.png'
p875
I0
sS'l8nr037.png'
p876
I7
sS'l10nr046.png'
p877
I9
sS'l15nr061.png'
p878
I14
sS'l8nr045.png'
p879
I7
sS'l7nr067.png'
p880
I6
sS'l12nr022.png'
p881
I11
sS'l15nr030.png'
p882
I14
sS'l7nr046.png'
p883
I6
sS'l15nr063.png'
p884
I14
sS'l11nr061.png'
p885
I10
sS'l1nr018.png'
p886
I0
sS'l6nr048.png'
p887
I5
sS'l6nr075.png'
p888
I5
sS'l6nr047.png'
p889
I5
sS'l9nr019.png'
p890
I8
sS'l5nr051.png'
p891
I4
sS'l3nr063.png'
p892
I2
sS'l6nr059.png'
p893
I5
sS'l1nr047.png'
p894
I0
sS'l2nr050.png'
p895
I1
sS'l6nr024.png'
p896
I5
sS'l15nr038.png'
p897
I14
sS'l8nr018.png'
p898
I7
sS'l1nr016.png'
p899
I0
sS'l5nr066.png'
p900
I4
sS'l12nr039.png'
p901
I11
sS'l8nr051.png'
p902
I7
sS'l12nr015.png'
p903
I11
sS'l2nr055.png'
p904
I1
sS'l8nr007.png'
p905
I7
sS'l12nr002.png'
p906
I11
sS'l13nr062.png'
p907
I12
sS'l2nr012.png'
p908
I1
sS'l1nr069.png'
p909
I0
sS'l13nr054.png'
p910
I12
sS'l8nr020.png'
p911
I7
sS'l9nr008.png'
p912
I8
sS'l7nr027.png'
p913
I6
sS'l10nr029.png'
p914
I9
sS'l9nr069.png'
p915
I8
sS'l12nr024.png'
p916
I11
sS'l12nr073.png'
p917
I11
sS'l11nr063.png'
p918
I10
sS'l14nr026.png'
p919
I13
sS'l12nr067.png'
p920
I11
sS'l15nr016.png'
p921
I14
sS'l12nr013.png'
p922
I11
sS'l13nr027.png'
p923
I12
sS'l14nr051.png'
p924
I13
sS'l5nr016.png'
p925
I4
sS'l13nr036.png'
p926
I12
sS'l13nr005.png'
p927
I12
sS'l13nr028.png'
p928
I12
sS'l7nr053.png'
p929
I6
sS'l9nr013.png'
p930
I8
sS'l10nr001.png'
p931
I9
sS'l15nr072.png'
p932
I14
sS'l14nr022.png'
p933
I13
sS'l7nr015.png'
p934
I6
sS'l5nr072.png'
p935
I4
sS'l13nr043.png'
p936
I12
sS'l8nr073.png'
p937
I7
sS'l15nr021.png'
p938
I14
sS'l3nr075.png'
p939
I2
sS'l1nr026.png'
p940
I0
sS'l9nr056.png'
p941
I8
sS'l6nr041.png'
p942
I5
sS'l14nr012.png'
p943
I13
sS'l5nr044.png'
p944
I4
sS'l8nr057.png'
p945
I7
sS'l7nr025.png'
p946
I6
sS'l14nr041.png'
p947
I13
sS'l8nr066.png'
p948
I7
sS'l13nr068.png'
p949
I12
sS'l1nr074.png'
p950
I0
sS'l12nr023.png'
p951
I11
sS'l5nr035.png'
p952
I4
sS'l9nr018.png'
p953
I8
sS'l6nr039.png'
p954
I5
sS'l15nr028.png'
p955
I14
sS'l5nr006.png'
p956
I4
sS'l8nr024.png'
p957
I7
sS'l2nr011.png'
p958
I1
sS'l4nr049.png'
p959
I3
sS'l12nr055.png'
p960
I11
sS'l10nr027.png'
p961
I9
sS'l11nr032.png'
p962
I10
sS'l9nr039.png'
p963
I8
sS'l7nr001.png'
p964
I6
sS'l12nr019.png'
p965
I11
sS'l6nr074.png'
p966
I5
sS'l7nr066.png'
p967
I6
sS'l9nr055.png'
p968
I8
sS'l8nr068.png'
p969
I7
sS'l1nr032.png'
p970
I0
sS'l13nr015.png'
p971
I12
sS'l8nr028.png'
p972
I7
sS'l7nr055.png'
p973
I6
sS'l1nr021.png'
p974
I0
sS'l10nr021.png'
p975
I9
sS'l11nr041.png'
p976
I10
sS'l10nr066.png'
p977
I9
sS'l14nr049.png'
p978
I13
sS'l8nr071.png'
p979
I7
sS'l9nr050.png'
p980
I8
sS'l5nr011.png'
p981
I4
sS'l7nr036.png'
p982
I6
sS'l13nr022.png'
p983
I12
sS'l10nr017.png'
p984
I9
sS'l4nr059.png'
p985
I3
sS'l10nr054.png'
p986
I9
sS'l6nr054.png'
p987
I5
sS'l12nr056.png'
p988
I11
sS'l7nr052.png'
p989
I6
sS'l10nr072.png'
p990
I9
sS'l10nr067.png'
p991
I9
sS'l12nr057.png'
p992
I11
sS'l14nr023.png'
p993
I13
sS'l12nr005.png'
p994
I11
sS'l9nr006.png'
p995
I8
sS'l6nr052.png'
p996
I5
sS'l3nr011.png'
p997
I2
sS'l2nr062.png'
p998
I1
sS'l13nr016.png'
p999
I12
sS'l7nr023.png'
p1000
I6
sS'l5nr017.png'
p1001
I4
sS'l9nr049.png'
p1002
I8
sS'l6nr037.png'
p1003
I5
sS'l7nr056.png'
p1004
I6
sS'l11nr012.png'
p1005
I10
sS'l13nr023.png'
p1006
I12
sS'l2nr041.png'
p1007
I1
sS'l8nr064.png'
p1008
I7
sS'l11nr037.png'
p1009
I10
sS'l9nr072.png'
p1010
I8
sS'l1nr042.png'
p1011
I0
sS'l10nr011.png'
p1012
I9
sS'l4nr041.png'
p1013
I3
sS'l15nr073.png'
p1014
I14
sS'l2nr031.png'
p1015
I1
sS'l11nr028.png'
p1016
I10
sS'l9nr058.png'
p1017
I8
sS'l5nr073.png'
p1018
I4
sS'l13nr065.png'
p1019
I12
sS'l2nr049.png'
p1020
I1
sS'l2nr010.png'
p1021
I1
sS'l15nr024.png'
p1022
I14
sS'l2nr072.png'
p1023
I1
sS'l14nr053.png'
p1024
I13
sS'l10nr005.png'
p1025
I9
sS'l2nr054.png'
p1026
I1
sS'l12nr017.png'
p1027
I11
sS'l13nr073.png'
p1028
I12
sS'l7nr030.png'
p1029
I6
sS'l11nr031.png'
p1030
I10
sS'l15nr048.png'
p1031
I14
sS'l8nr067.png'
p1032
I7
sS'l12nr054.png'
p1033
I11
sS'l1nr015.png'
p1034
I0
sS'l15nr037.png'
p1035
I14
sS'l15nr049.png'
p1036
I14
sS'l4nr043.png'
p1037
I3
sS'l7nr039.png'
p1038
I6
sS'l3nr028.png'
p1039
I2
sS'l13nr020.png'
p1040
I12
sS'l14nr008.png'
p1041
I13
sS'l7nr031.png'
p1042
I6
sS'l8nr062.png'
p1043
I7
sS'l2nr065.png'
p1044
I1
sS'l3nr051.png'
p1045
I2
sS'l2nr022.png'
p1046
I1
sS'l15nr039.png'
p1047
I14
sS'l6nr032.png'
p1048
I5
sS'l10nr045.png'
p1049
I9
sS'l10nr065.png'
p1050
I9
sS'l5nr022.png'
p1051
I4
sS'l4nr065.png'
p1052
I3
sS'l8nr042.png'
p1053
I7
sS'l6nr014.png'
p1054
I5
sS'l5nr019.png'
p1055
I4
sS'l12nr046.png'
p1056
I11
sS'l14nr070.png'
p1057
I13
sS'l13nr017.png'
p1058
I12
sS'l9nr014.png'
p1059
I8
sS'l4nr055.png'
p1060
I3
sS'l15nr050.png'
p1061
I14
sS'l12nr074.png'
p1062
I11
sS'l4nr002.png'
p1063
I3
sS'l2nr063.png'
p1064
I1
sS'l10nr071.png'
p1065
I9
sS'l11nr066.png'
p1066
I10
sS'l14nr013.png'
p1067
I13
sS'l8nr021.png'
p1068
I7
sS'l10nr028.png'
p1069
I9
sS'l4nr011.png'
p1070
I3
sS'l10nr037.png'
p1071
I9
sS'l4nr009.png'
p1072
I3
sS'l9nr071.png'
p1073
I8
sS'l8nr004.png'
p1074
I7
sS'l15nr033.png'
p1075
I14
sS'l2nr004.png'
p1076
I1
sS'l4nr021.png'
p1077
I3
sS'l11nr038.png'
p1078
I10
sS'l13nr035.png'
p1079
I12
sS'l10nr059.png'
p1080
I9
sS'l5nr059.png'
p1081
I4
sS'l13nr026.png'
p1082
I12
sS'l6nr036.png'
p1083
I5
sS'l1nr052.png'
p1084
I0
sS'l4nr072.png'
p1085
I3
sS'l10nr061.png'
p1086
I9
sS'l14nr024.png'
p1087
I13
sS'l15nr064.png'
p1088
I14
sS'l9nr037.png'
p1089
I8
sS'l14nr020.png'
p1090
I13
sS'l9nr051.png'
p1091
I8
sS'l12nr003.png'
p1092
I11
sS'l4nr064.png'
p1093
I3
sS'l7nr051.png'
p1094
I6
sS'l3nr004.png'
p1095
I2
sS'l15nr018.png'
p1096
I14
sS'l8nr010.png'
p1097
I7
sS'l4nr036.png'
p1098
I3
sS'l11nr035.png'
p1099
I10
sS'l6nr070.png'
p1100
I5
sS'l5nr004.png'
p1101
I4
sS'l10nr004.png'
p1102
I9
sS'l5nr050.png'
p1103
I4
sS'l13nr075.png'
p1104
I12
sS'l15nr035.png'
p1105
I14
sS'l15nr010.png'
p1106
I14
sS'l10nr016.png'
p1107
I9
sS'l4nr052.png'
p1108
I3
sS'l10nr050.png'
p1109
I9
sS'l9nr041.png'
p1110
I8
sS'l4nr005.png'
p1111
I3
sS'l3nr002.png'
p1112
I2
sS'l15nr003.png'
p1113
I14
sS'l2nr056.png'
p1114
I1
sS'l13nr053.png'
p1115
I12
sS'l15nr008.png'
p1116
I14
sS'l5nr053.png'
p1117
I4
sS'l13nr059.png'
p1118
I12
sS'l10nr070.png'
p1119
I9
sS'l14nr033.png'
p1120
I13
sS'l10nr051.png'
p1121
I9
sS'l12nr010.png'
p1122
I11
sS'l7nr064.png'
p1123
I6
sS'l1nr039.png'
p1124
I0
sS'l4nr019.png'
p1125
I3
sS'l6nr009.png'
p1126
I5
s.